; Function Attrs: mustprogress uwtable
define hidden noundef ptr @_Z33pj_projection_specific_setup_gnomP8PJconsts(ptr noundef %0) local_unnamed_addr #0 {
  %2 = tail call noalias dereferenceable_or_null(432) ptr @calloc(i64 noundef 1, i64 noundef 432) #8
  %3 = icmp eq ptr %2, null
  br i1 %3, label %4, label %6

4:                                                ; preds = %1
  %5 = tail call noundef ptr @_Z21pj_default_destructorP8PJconstsi(ptr noundef %0, i32 noundef 4096)
  br label %37

6:                                                ; preds = %1
  %7 = getelementptr inbounds nuw i8, ptr %0, i64 88
  store ptr %2, ptr %7, align 8, !tbaa !3
  %8 = getelementptr inbounds nuw i8, ptr %0, i64 216
  %9 = load double, ptr %8, align 8, !tbaa !36
  %10 = fcmp oeq double %9, 0.000000e+00
  br i1 %10, label %11, label %30

11:                                               ; preds = %6
  %12 = getelementptr inbounds nuw i8, ptr %0, i64 448
  %13 = load double, ptr %12, align 8, !tbaa !37
  %14 = tail call double @llvm.fabs.f64(double %13)
  %15 = fadd double %14, 0xBFF921FB54442D18
  %16 = tail call double @llvm.fabs.f64(double %15)
  %17 = fcmp olt double %16, 1.000000e-10
  br i1 %17, label %18, label %22

18:                                               ; preds = %11
  %19 = fcmp olt double %13, 0.000000e+00
  %20 = zext i1 %19 to i32
  %21 = getelementptr inbounds nuw i8, ptr %2, i64 16
  store i32 %20, ptr %21, align 8, !tbaa !38
  br label %34

22:                                               ; preds = %11
  %23 = fcmp olt double %14, 1.000000e-10
  %24 = getelementptr inbounds nuw i8, ptr %2, i64 16
  br i1 %23, label %25, label %26

25:                                               ; preds = %22
  store i32 2, ptr %24, align 8, !tbaa !38
  br label %34

26:                                               ; preds = %22
  store i32 3, ptr %24, align 8, !tbaa !38
  %27 = tail call double @sin(double noundef %13) #9, !tbaa !42
  store double %27, ptr %2, align 8, !tbaa !43
  %28 = tail call double @cos(double noundef %13) #9, !tbaa !42
  %29 = getelementptr inbounds nuw i8, ptr %2, i64 8
  store double %28, ptr %29, align 8, !tbaa !44
  br label %34

30:                                               ; preds = %6
  %31 = getelementptr inbounds nuw i8, ptr %2, i64 24
  %32 = getelementptr inbounds nuw i8, ptr %0, i64 272
  %33 = load double, ptr %32, align 8, !tbaa !45
  tail call void @geod_init(ptr noundef nonnull %31, double noundef 1.000000e+00, double noundef %33)
  br label %34

34:                                               ; preds = %18, %26, %25, %30
  %_ZL14gnom_e_inverse5PJ_XYP8PJconsts.sink = phi ptr [ @_ZL14gnom_e_inverse5PJ_XYP8PJconsts, %30 ], [ @_ZL14gnom_s_inverse5PJ_XYP8PJconsts, %25 ], [ @_ZL14gnom_s_inverse5PJ_XYP8PJconsts, %26 ], [ @_ZL14gnom_s_inverse5PJ_XYP8PJconsts, %18 ]
  %_ZL14gnom_e_forward5PJ_LPP8PJconsts.sink = phi ptr [ @_ZL14gnom_e_forward5PJ_LPP8PJconsts, %30 ], [ @_ZL14gnom_s_forward5PJ_LPP8PJconsts, %25 ], [ @_ZL14gnom_s_forward5PJ_LPP8PJconsts, %26 ], [ @_ZL14gnom_s_forward5PJ_LPP8PJconsts, %18 ]
  %35 = getelementptr inbounds nuw i8, ptr %0, i64 112
  store ptr %_ZL14gnom_e_inverse5PJ_XYP8PJconsts.sink, ptr %35, align 8, !tbaa !46
  %36 = getelementptr inbounds nuw i8, ptr %0, i64 104
  store ptr %_ZL14gnom_e_forward5PJ_LPP8PJconsts.sink, ptr %36, align 8, !tbaa !47
  store double 0.000000e+00, ptr %8, align 8, !tbaa !36
  br label %37

37:                                               ; preds = %34, %4
  %.0 = phi ptr [ %5, %4 ], [ %0, %34 ]
  ret ptr %.0
}